target datalayout = "e-m:e-p270:32:32-p271:32:32-p272:64:64-i64:64-i128:128-f80:128-n8:16:32:64-S128"
target triple = "x86_64-pc-linux-gnu"

%struct.BuiltinScript = type { ptr, ptr, ptr }

@builtin_script = internal constant [3 x %struct.BuiltinScript] [%struct.BuiltinScript { ptr @.str.90, ptr @.str.140, ptr @.str.141 }, %struct.BuiltinScript { ptr @.str.74, ptr @.str.142, ptr @.str.143 }, %struct.BuiltinScript { ptr @.str.32, ptr @.str.144, ptr @.str.145 }], align 16
@.str.183 = private unnamed_addr constant [38 x i8] c"no builtin script found for name \22%s\22\00", align 1
@.str.184 = private unnamed_addr constant [65 x i8] c"ambiguous builtin name: %d builtin scripts found for prefix \22%s\22\00", align 1

; Function Attrs: nounwind uwtable
define internal ptr @findBuiltin(ptr noundef %0) #0 {
  %2 = alloca ptr, align 8
  %3 = alloca i32, align 4
  %4 = alloca i32, align 4
  %5 = alloca i32, align 4
  %6 = alloca ptr, align 8
  store ptr %0, ptr %2, align 8
  call void @llvm.lifetime.start.p0(i64 4, ptr %3) #14
  call void @llvm.lifetime.start.p0(i64 4, ptr %4) #14
  store i32 0, ptr %4, align 4
  call void @llvm.lifetime.start.p0(i64 4, ptr %5) #14
  %7 = load ptr, ptr %2, align 8
  %8 = call i64 @strlen(ptr noundef %7) #17
  %9 = trunc i64 %8 to i32
  store i32 %9, ptr %5, align 4
  call void @llvm.lifetime.start.p0(i64 8, ptr %6) #14
  store ptr null, ptr %6, align 8
  store i32 0, ptr %3, align 4
  br label %10

10:                                               ; preds = %32, %1
  %11 = load i32, ptr %3, align 4
  %12 = sext i32 %11 to i64
  %13 = icmp ult i64 %12, 3
  br i1 %13, label %14, label %35

14:                                               ; preds = %10
  %15 = load i32, ptr %3, align 4
  %16 = sext i32 %15 to i64
  %17 = getelementptr inbounds [3 x %struct.BuiltinScript], ptr @builtin_script, i64 0, i64 %16
  %18 = getelementptr inbounds nuw %struct.BuiltinScript, ptr %17, i32 0, i32 0
  %19 = load ptr, ptr %18, align 8
  %20 = load ptr, ptr %2, align 8
  %21 = load i32, ptr %5, align 4
  %22 = sext i32 %21 to i64
  %23 = call i32 @strncmp(ptr noundef %19, ptr noundef %20, i64 noundef %22) #17
  %24 = icmp eq i32 %23, 0
  br i1 %24, label %25, label %31

25:                                               ; preds = %14
  %26 = load i32, ptr %3, align 4
  %27 = sext i32 %26 to i64
  %28 = getelementptr inbounds [3 x %struct.BuiltinScript], ptr @builtin_script, i64 0, i64 %27
  store ptr %28, ptr %6, align 8
  %29 = load i32, ptr %4, align 4
  %30 = add i32 %29, 1
  store i32 %30, ptr %4, align 4
  br label %31

31:                                               ; preds = %25, %14
  br label %32

32:                                               ; preds = %31
  %33 = load i32, ptr %3, align 4
  %34 = add i32 %33, 1
  store i32 %34, ptr %3, align 4
  br label %10, !llvm.loop !27

35:                                               ; preds = %10
  %36 = load i32, ptr %4, align 4
  %37 = icmp eq i32 %36, 1
  br i1 %37, label %38, label %40

38:                                               ; preds = %35
  %39 = load ptr, ptr %6, align 8
  call void @llvm.lifetime.end.p0(i64 8, ptr %6) #14
  call void @llvm.lifetime.end.p0(i64 4, ptr %5) #14
  call void @llvm.lifetime.end.p0(i64 4, ptr %4) #14
  call void @llvm.lifetime.end.p0(i64 4, ptr %3) #14
  ret ptr %39

40:                                               ; preds = %35
  %41 = load i32, ptr %4, align 4
  %42 = icmp eq i32 %41, 0
  br i1 %42, label %43, label %45

43:                                               ; preds = %40
  %44 = load ptr, ptr %2, align 8
  call void (i32, i32, ptr, ...) @pg_log_generic(i32 noundef 4, i32 noundef 0, ptr noundef @.str.183, ptr noundef %44)
  br label %48

45:                                               ; preds = %40
  %46 = load i32, ptr %4, align 4
  %47 = load ptr, ptr %2, align 8
  call void (i32, i32, ptr, ...) @pg_log_generic(i32 noundef 4, i32 noundef 0, ptr noundef @.str.184, i32 noundef %46, ptr noundef %47)
  br label %48

48:                                               ; preds = %45, %43
  call void @listAvailableScripts()
  call void @exit(i32 noundef 1) #16
  unreachable
}