; Function Attrs: nounwind uwtable
define internal fastcc ptr @findBuiltin(ptr noundef %0) unnamed_addr #0 {
  %2 = tail call i64 @strlen(ptr noundef nonnull dereferenceable(1) %0) #27
  %sext = shl i64 %2, 32
  %3 = ashr exact i64 %sext, 32
  br label %4

4:                                                ; preds = %1, %4
  %indvars.iv = phi i64 [ 0, %1 ], [ %indvars.iv.next, %4 ]
  %.020 = phi ptr [ null, %1 ], [ %spec.select17, %4 ]
  %.01418 = phi i32 [ 0, %1 ], [ %spec.select, %4 ]
  %5 = getelementptr inbounds nuw [3 x %struct.BuiltinScript], ptr @builtin_script, i64 0, i64 %indvars.iv
  %6 = load ptr, ptr %5, align 8
  %7 = tail call i32 @strncmp(ptr noundef %6, ptr noundef nonnull %0, i64 noundef %3) #27
  %8 = icmp eq i32 %7, 0
  %9 = zext i1 %8 to i32
  %spec.select = add i32 %.01418, %9
  %spec.select17 = select i1 %8, ptr %5, ptr %.020
  %indvars.iv.next = add nuw nsw i64 %indvars.iv, 1
  %exitcond.not = icmp eq i64 %indvars.iv.next, 3
  br i1 %exitcond.not, label %10, label %4, !llvm.loop !35

10:                                               ; preds = %4
  switch i32 %spec.select, label %13 [
    i32 1, label %11
    i32 0, label %12
  ]

11:                                               ; preds = %10
  ret ptr %spec.select17

12:                                               ; preds = %10
  tail call void (i32, i32, ptr, ...) @pg_log_generic(i32 noundef 4, i32 noundef 0, ptr noundef nonnull @.str.183, ptr noundef nonnull %0) #25
  br label %14

13:                                               ; preds = %10
  tail call void (i32, i32, ptr, ...) @pg_log_generic(i32 noundef 4, i32 noundef 0, ptr noundef nonnull @.str.184, i32 noundef %spec.select, ptr noundef nonnull %0) #25
  br label %14

14:                                               ; preds = %13, %12
  tail call fastcc void @listAvailableScripts()
  tail call void @exit(i32 noundef 1) #26
  unreachable
}